; Function Attrs: nounwind uwtable
define dso_local void @end_url_with_slash(ptr noundef %0, ptr noundef %1) local_unnamed_addr #3 {
  %3 = tail call i64 @strlen(ptr noundef nonnull dereferenceable(1) %1) #8
  tail call void @strbuf_add(ptr noundef %0, ptr noundef nonnull %1, i64 noundef %3) #9
  %4 = getelementptr inbounds nuw i8, ptr %0, i64 8
  %5 = load i64, ptr %4, align 8, !tbaa !15
  %.not.i = icmp eq i64 %5, 0
  br i1 %.not.i, label %strbuf_complete.exit, label %6

6:                                                ; preds = %2
  %7 = getelementptr inbounds nuw i8, ptr %0, i64 16
  %8 = load ptr, ptr %7, align 8, !tbaa !16
  %9 = getelementptr i8, ptr %8, i64 %5
  %10 = getelementptr i8, ptr %9, i64 -1
  %11 = load i8, ptr %10, align 1, !tbaa !4
  %.not6.i = icmp eq i8 %11, 47
  br i1 %.not6.i, label %strbuf_complete.exit, label %12

12:                                               ; preds = %6
  %13 = load i64, ptr %0, align 8, !tbaa !12
  %.not.i.i.i = icmp eq i64 %13, 0
  %.neg.i.i = add i64 %5, 1
  %.not.i.i = icmp eq i64 %13, %.neg.i.i
  %or.cond.i = or i1 %.not.i.i.i, %.not.i.i
  br i1 %or.cond.i, label %strbuf_avail.exit.thread.i.i, label %strbuf_addch.exit.i

strbuf_avail.exit.thread.i.i:                     ; preds = %12
  tail call void @strbuf_grow(ptr noundef nonnull %0, i64 noundef 1) #9
  %.pre.i.i = load i64, ptr %4, align 8, !tbaa !15
  %.pre7.i.i = add i64 %.pre.i.i, 1
  %.pre.i = load ptr, ptr %7, align 8, !tbaa !16
  br label %strbuf_addch.exit.i

strbuf_addch.exit.i:                              ; preds = %strbuf_avail.exit.thread.i.i, %12
  %14 = phi ptr [ %.pre.i, %strbuf_avail.exit.thread.i.i ], [ %8, %12 ]
  %.pre-phi.i.i = phi i64 [ %.pre7.i.i, %strbuf_avail.exit.thread.i.i ], [ %.neg.i.i, %12 ]
  %15 = phi i64 [ %.pre.i.i, %strbuf_avail.exit.thread.i.i ], [ %5, %12 ]
  store i64 %.pre-phi.i.i, ptr %4, align 8, !tbaa !15
  %16 = getelementptr inbounds nuw i8, ptr %14, i64 %15
  store i8 47, ptr %16, align 1, !tbaa !4
  %17 = load ptr, ptr %7, align 8, !tbaa !16
  %18 = load i64, ptr %4, align 8, !tbaa !15
  %19 = getelementptr inbounds nuw i8, ptr %17, i64 %18
  store i8 0, ptr %19, align 1, !tbaa !4
  br label %strbuf_complete.exit

strbuf_complete.exit:                             ; preds = %2, %6, %strbuf_addch.exit.i
  ret void
}